target datalayout = "e-m:e-p270:32:32-p271:32:32-p272:64:64-i64:64-i128:128-f80:128-n8:16:32:64-S128"
target triple = "x86_64-pc-linux-gnu"

%struct.varattrib_1b = type { i8, [0 x i8] }
%struct.varattrib_1b_e = type { i8, i8, [0 x i8] }
%struct.anon = type { i32, [0 x i8] }
%struct.FunctionCallInfoBaseData = type { ptr, ptr, ptr, i32, i8, i16, [0 x %struct.NullableDatum] }
%struct.NullableDatum = type { i64, i8 }
%struct.pg_re_flags = type { i32, i8 }

@.str.3 = private unnamed_addr constant [9 x i8] c"regexp.c\00", align 1
@.str.9 = private unnamed_addr constant [40 x i8] c"%s does not support the \22global\22 option\00", align 1
@.str.14 = private unnamed_addr constant [14 x i8] c"regexp_like()\00", align 1
@__func__.regexp_like = private unnamed_addr constant [12 x i8] c"regexp_like\00", align 1

; Function Attrs: nounwind uwtable
define internal zeroext i1 @RE_execute(ptr noundef %0, ptr noundef %1, i32 noundef %2, i32 noundef %3, ptr noundef %4) #0 {
  %6 = alloca ptr, align 8
  %7 = alloca ptr, align 8
  %8 = alloca i32, align 4
  %9 = alloca i32, align 4
  %10 = alloca ptr, align 8
  %11 = alloca ptr, align 8
  %12 = alloca i32, align 4
  %13 = alloca i8, align 1
  store ptr %0, ptr %6, align 8
  store ptr %1, ptr %7, align 8
  store i32 %2, ptr %8, align 4
  store i32 %3, ptr %9, align 4
  store ptr %4, ptr %10, align 8
  call void @llvm.lifetime.start.p0(i64 8, ptr %11) #8
  call void @llvm.lifetime.start.p0(i64 4, ptr %12) #8
  call void @llvm.lifetime.start.p0(i64 1, ptr %13) #8
  %14 = load i32, ptr %8, align 4
  %15 = add i32 %14, 1
  %16 = sext i32 %15 to i64
  %17 = mul i64 %16, 4
  %18 = call ptr @palloc(i64 noundef %17)
  store ptr %18, ptr %11, align 8
  %19 = load ptr, ptr %7, align 8
  %20 = load ptr, ptr %11, align 8
  %21 = load i32, ptr %8, align 4
  %22 = call i32 @pg_mb2wchar_with_len(ptr noundef %19, ptr noundef %20, i32 noundef %21)
  store i32 %22, ptr %12, align 4
  %23 = load ptr, ptr %6, align 8
  %24 = load ptr, ptr %11, align 8
  %25 = load i32, ptr %12, align 4
  %26 = load i32, ptr %9, align 4
  %27 = load ptr, ptr %10, align 8
  %28 = call zeroext i1 @RE_wchar_execute(ptr noundef %23, ptr noundef %24, i32 noundef %25, i32 noundef 0, i32 noundef %26, ptr noundef %27)
  %29 = zext i1 %28 to i8
  store i8 %29, ptr %13, align 1
  %30 = load ptr, ptr %11, align 8
  call void @pfree(ptr noundef %30)
  %31 = load i8, ptr %13, align 1, !range !6, !noundef !7
  %32 = trunc i8 %31 to i1
  call void @llvm.lifetime.end.p0(i64 1, ptr %13) #8
  call void @llvm.lifetime.end.p0(i64 4, ptr %12) #8
  call void @llvm.lifetime.end.p0(i64 8, ptr %11) #8
  ret i1 %32
}

; Function Attrs: inlinehint nounwind uwtable
define internal i64 @BoolGetDatum(i1 noundef zeroext %0) #6 {
  %2 = alloca i8, align 1
  %3 = zext i1 %0 to i8
  store i8 %3, ptr %2, align 1
  %4 = load i8, ptr %2, align 1, !range !6, !noundef !7
  %5 = trunc i8 %4 to i1
  %6 = select i1 %5, i32 1, i32 0
  %7 = sext i32 %6 to i64
  ret i64 %7
}

; Function Attrs: nounwind uwtable
define dso_local zeroext i1 @RE_compile_and_execute(ptr noundef %0, ptr noundef %1, i32 noundef %2, i32 noundef %3, i32 noundef %4, i32 noundef %5, ptr noundef %6) #0 {
  %8 = alloca ptr, align 8
  %9 = alloca ptr, align 8
  %10 = alloca i32, align 4
  %11 = alloca i32, align 4
  %12 = alloca i32, align 4
  %13 = alloca i32, align 4
  %14 = alloca ptr, align 8
  %15 = alloca ptr, align 8
  store ptr %0, ptr %8, align 8
  store ptr %1, ptr %9, align 8
  store i32 %2, ptr %10, align 4
  store i32 %3, ptr %11, align 4
  store i32 %4, ptr %12, align 4
  store i32 %5, ptr %13, align 4
  store ptr %6, ptr %14, align 8
  call void @llvm.lifetime.start.p0(i64 8, ptr %15) #8
  %16 = load i32, ptr %13, align 4
  %17 = icmp slt i32 %16, 2
  br i1 %17, label %18, label %21

18:                                               ; preds = %7
  %19 = load i32, ptr %11, align 4
  %20 = or i32 %19, 16
  store i32 %20, ptr %11, align 4
  br label %21

21:                                               ; preds = %18, %7
  %22 = load ptr, ptr %8, align 8
  %23 = load i32, ptr %11, align 4
  %24 = load i32, ptr %12, align 4
  %25 = call ptr @RE_compile_and_cache(ptr noundef %22, i32 noundef %23, i32 noundef %24)
  store ptr %25, ptr %15, align 8
  %26 = load ptr, ptr %15, align 8
  %27 = load ptr, ptr %9, align 8
  %28 = load i32, ptr %10, align 4
  %29 = load i32, ptr %13, align 4
  %30 = load ptr, ptr %14, align 8
  %31 = call zeroext i1 @RE_execute(ptr noundef %26, ptr noundef %27, i32 noundef %28, i32 noundef %29, ptr noundef %30)
  call void @llvm.lifetime.end.p0(i64 8, ptr %15) #8
  ret i1 %31
}

; Function Attrs: inlinehint nounwind uwtable
define internal ptr @DatumGetPointer(i64 noundef %0) #6 {
  %2 = alloca i64, align 8
  store i64 %0, ptr %2, align 8
  %3 = load i64, ptr %2, align 8
  %4 = inttoptr i64 %3 to ptr
  ret ptr %4
}

; Function Attrs: nounwind uwtable
define dso_local i64 @regexp_like(ptr noundef %0) #0 {
  %2 = alloca ptr, align 8
  %3 = alloca ptr, align 8
  %4 = alloca ptr, align 8
  %5 = alloca ptr, align 8
  %6 = alloca %struct.pg_re_flags, align 4
  store ptr %0, ptr %2, align 8
  call void @llvm.lifetime.start.p0(i64 8, ptr %3) #8
  %7 = load ptr, ptr %2, align 8
  %8 = getelementptr inbounds nuw %struct.FunctionCallInfoBaseData, ptr %7, i32 0, i32 6
  %9 = getelementptr inbounds [0 x %struct.NullableDatum], ptr %8, i64 0, i64 0
  %10 = getelementptr inbounds nuw %struct.NullableDatum, ptr %9, i32 0, i32 0
  %11 = load i64, ptr %10, align 8
  %12 = call ptr @DatumGetPointer(i64 noundef %11)
  %13 = call ptr @pg_detoast_datum_packed(ptr noundef %12)
  store ptr %13, ptr %3, align 8
  call void @llvm.lifetime.start.p0(i64 8, ptr %4) #8
  %14 = load ptr, ptr %2, align 8
  %15 = getelementptr inbounds nuw %struct.FunctionCallInfoBaseData, ptr %14, i32 0, i32 6
  %16 = getelementptr inbounds [0 x %struct.NullableDatum], ptr %15, i64 0, i64 1
  %17 = getelementptr inbounds nuw %struct.NullableDatum, ptr %16, i32 0, i32 0
  %18 = load i64, ptr %17, align 8
  %19 = call ptr @DatumGetPointer(i64 noundef %18)
  %20 = call ptr @pg_detoast_datum_packed(ptr noundef %19)
  store ptr %20, ptr %4, align 8
  call void @llvm.lifetime.start.p0(i64 8, ptr %5) #8
  %21 = load ptr, ptr %2, align 8
  %22 = getelementptr inbounds nuw %struct.FunctionCallInfoBaseData, ptr %21, i32 0, i32 5
  %23 = load i16, ptr %22, align 2
  %24 = sext i16 %23 to i32
  %25 = icmp sgt i32 %24, 2
  br i1 %25, label %26, label %34

26:                                               ; preds = %1
  %27 = load ptr, ptr %2, align 8
  %28 = getelementptr inbounds nuw %struct.FunctionCallInfoBaseData, ptr %27, i32 0, i32 6
  %29 = getelementptr inbounds [0 x %struct.NullableDatum], ptr %28, i64 0, i64 2
  %30 = getelementptr inbounds nuw %struct.NullableDatum, ptr %29, i32 0, i32 0
  %31 = load i64, ptr %30, align 8
  %32 = call ptr @DatumGetPointer(i64 noundef %31)
  %33 = call ptr @pg_detoast_datum_packed(ptr noundef %32)
  br label %35

34:                                               ; preds = %1
  br label %35

35:                                               ; preds = %34, %26
  %36 = phi ptr [ %33, %26 ], [ null, %34 ]
  store ptr %36, ptr %5, align 8
  call void @llvm.lifetime.start.p0(i64 8, ptr %6) #8
  %37 = load ptr, ptr %5, align 8
  call void @parse_re_flags(ptr noundef %6, ptr noundef %37)
  %38 = getelementptr inbounds nuw %struct.pg_re_flags, ptr %6, i32 0, i32 1
  %39 = load i8, ptr %38, align 4, !range !6, !noundef !7
  %40 = trunc i8 %39 to i1
  br i1 %40, label %41, label %53

41:                                               ; preds = %35
  br label %42

42:                                               ; preds = %41
  br i1 true, label %43, label %45

43:                                               ; preds = %42
  %44 = call zeroext i1 @errstart_cold(i32 noundef 21, ptr noundef null) #10
  br i1 %44, label %47, label %50

45:                                               ; preds = %42
  %46 = call zeroext i1 @errstart(i32 noundef 21, ptr noundef null)
  br i1 %46, label %47, label %50

47:                                               ; preds = %45, %43
  %48 = call i32 @errcode(i32 noundef 50856066)
  %49 = call i32 (ptr, ...) @errmsg(ptr noundef @.str.9, ptr noundef @.str.14)
  call void @errfinish(ptr noundef @.str.3, i32 noundef 1272, ptr noundef @__func__.regexp_like)
  br label %50

50:                                               ; preds = %47, %45, %43
  unreachable

51:                                               ; No predecessors!
  br label %52

52:                                               ; preds = %51
  br label %53

53:                                               ; preds = %52, %35
  %54 = load ptr, ptr %4, align 8
  %55 = load ptr, ptr %3, align 8
  %56 = getelementptr inbounds nuw %struct.varattrib_1b, ptr %55, i32 0, i32 0
  %57 = load i8, ptr %56, align 1
  %58 = zext i8 %57 to i32
  %59 = and i32 %58, 1
  %60 = icmp eq i32 %59, 1
  br i1 %60, label %61, label %65

61:                                               ; preds = %53
  %62 = load ptr, ptr %3, align 8
  %63 = getelementptr inbounds nuw %struct.varattrib_1b, ptr %62, i32 0, i32 1
  %64 = getelementptr inbounds [0 x i8], ptr %63, i64 0, i64 0
  br label %69

65:                                               ; preds = %53
  %66 = load ptr, ptr %3, align 8
  %67 = getelementptr inbounds nuw %struct.anon, ptr %66, i32 0, i32 1
  %68 = getelementptr inbounds [0 x i8], ptr %67, i64 0, i64 0
  br label %69

69:                                               ; preds = %65, %61
  %70 = phi ptr [ %64, %61 ], [ %68, %65 ]
  %71 = load ptr, ptr %3, align 8
  %72 = getelementptr inbounds nuw %struct.varattrib_1b, ptr %71, i32 0, i32 0
  %73 = load i8, ptr %72, align 1
  %74 = zext i8 %73 to i32
  %75 = icmp eq i32 %74, 1
  br i1 %75, label %76, label %104

76:                                               ; preds = %69
  %77 = load ptr, ptr %3, align 8
  %78 = getelementptr inbounds nuw %struct.varattrib_1b_e, ptr %77, i32 0, i32 1
  %79 = load i8, ptr %78, align 1
  %80 = zext i8 %79 to i32
  %81 = icmp eq i32 %80, 1
  br i1 %81, label %82, label %83

82:                                               ; preds = %76
  br label %100

83:                                               ; preds = %76
  %84 = load ptr, ptr %3, align 8
  %85 = getelementptr inbounds nuw %struct.varattrib_1b_e, ptr %84, i32 0, i32 1
  %86 = load i8, ptr %85, align 1
  %87 = zext i8 %86 to i32
  %88 = and i32 %87, -2
  %89 = icmp eq i32 %88, 2
  br i1 %89, label %90, label %91

90:                                               ; preds = %83
  br label %98

91:                                               ; preds = %83
  %92 = load ptr, ptr %3, align 8
  %93 = getelementptr inbounds nuw %struct.varattrib_1b_e, ptr %92, i32 0, i32 1
  %94 = load i8, ptr %93, align 1
  %95 = zext i8 %94 to i32
  %96 = icmp eq i32 %95, 18
  %97 = select i1 %96, i64 16, i64 0
  br label %98

98:                                               ; preds = %91, %90
  %99 = phi i64 [ 8, %90 ], [ %97, %91 ]
  br label %100

100:                                              ; preds = %98, %82
  %101 = phi i64 [ 8, %82 ], [ %99, %98 ]
  %102 = add i64 2, %101
  %103 = sub i64 %102, 2
  br label %130

104:                                              ; preds = %69
  %105 = load ptr, ptr %3, align 8
  %106 = getelementptr inbounds nuw %struct.varattrib_1b, ptr %105, i32 0, i32 0
  %107 = load i8, ptr %106, align 1
  %108 = zext i8 %107 to i32
  %109 = and i32 %108, 1
  %110 = icmp eq i32 %109, 1
  br i1 %110, label %111, label %120

111:                                              ; preds = %104
  %112 = load ptr, ptr %3, align 8
  %113 = getelementptr inbounds nuw %struct.varattrib_1b, ptr %112, i32 0, i32 0
  %114 = load i8, ptr %113, align 1
  %115 = zext i8 %114 to i32
  %116 = ashr i32 %115, 1
  %117 = and i32 %116, 127
  %118 = sext i32 %117 to i64
  %119 = sub i64 %118, 1
  br label %128

120:                                              ; preds = %104
  %121 = load ptr, ptr %3, align 8
  %122 = getelementptr inbounds nuw %struct.anon, ptr %121, i32 0, i32 0
  %123 = load i32, ptr %122, align 4
  %124 = lshr i32 %123, 2
  %125 = and i32 %124, 1073741823
  %126 = sub i32 %125, 4
  %127 = zext i32 %126 to i64
  br label %128

128:                                              ; preds = %120, %111
  %129 = phi i64 [ %119, %111 ], [ %127, %120 ]
  br label %130

130:                                              ; preds = %128, %100
  %131 = phi i64 [ %103, %100 ], [ %129, %128 ]
  %132 = trunc i64 %131 to i32
  %133 = getelementptr inbounds nuw %struct.pg_re_flags, ptr %6, i32 0, i32 0
  %134 = load i32, ptr %133, align 4
  %135 = load ptr, ptr %2, align 8
  %136 = getelementptr inbounds nuw %struct.FunctionCallInfoBaseData, ptr %135, i32 0, i32 3
  %137 = load i32, ptr %136, align 8
  %138 = call zeroext i1 @RE_compile_and_execute(ptr noundef %54, ptr noundef %70, i32 noundef %132, i32 noundef %134, i32 noundef %137, i32 noundef 0, ptr noundef null)
  %139 = call i64 @BoolGetDatum(i1 noundef zeroext %138)
  call void @llvm.lifetime.end.p0(i64 8, ptr %6) #8
  call void @llvm.lifetime.end.p0(i64 8, ptr %5) #8
  call void @llvm.lifetime.end.p0(i64 8, ptr %4) #8
  call void @llvm.lifetime.end.p0(i64 8, ptr %3) #8
  ret i64 %139
}