; Function Attrs: nounwind uwtable
define dso_local range(i64 0, 2) i64 @regexp_like(ptr noundef readonly captures(none) %0) local_unnamed_addr #0 {
  %2 = alloca %struct.pg_re_flags, align 4
  %3 = getelementptr inbounds nuw i8, ptr %0, i64 32
  %4 = load i64, ptr %3, align 8
  %5 = inttoptr i64 %4 to ptr
  %6 = tail call ptr @pg_detoast_datum_packed(ptr noundef %5) #9
  %7 = getelementptr inbounds nuw i8, ptr %0, i64 48
  %8 = load i64, ptr %7, align 8
  %9 = inttoptr i64 %8 to ptr
  %10 = tail call ptr @pg_detoast_datum_packed(ptr noundef %9) #9
  %11 = getelementptr inbounds nuw i8, ptr %0, i64 30
  %12 = load i16, ptr %11, align 2
  %13 = icmp sgt i16 %12, 2
  br i1 %13, label %14, label %19

14:                                               ; preds = %1
  %15 = getelementptr inbounds nuw i8, ptr %0, i64 64
  %16 = load i64, ptr %15, align 8
  %17 = inttoptr i64 %16 to ptr
  %18 = tail call ptr @pg_detoast_datum_packed(ptr noundef %17) #9
  br label %19

19:                                               ; preds = %1, %14
  %20 = phi ptr [ %18, %14 ], [ null, %1 ]
  call void @llvm.lifetime.start.p0(i64 8, ptr nonnull %2) #9
  call fastcc void @parse_re_flags(ptr noundef %2, ptr noundef %20)
  %21 = getelementptr inbounds nuw i8, ptr %2, i64 4
  %22 = load i8, ptr %21, align 4, !range !7, !noundef !8
  %23 = trunc nuw i8 %22 to i1
  br i1 %23, label %24, label %28

24:                                               ; preds = %19
  %25 = tail call zeroext i1 @errstart_cold(i32 noundef 21, ptr noundef null) #10
  tail call void @llvm.assume(i1 %25)
  %26 = tail call i32 @errcode(i32 noundef 50856066) #9
  %27 = tail call i32 (ptr, ...) @errmsg(ptr noundef nonnull @.str.9, ptr noundef nonnull @.str.14) #9
  tail call void @errfinish(ptr noundef nonnull @.str.3, i32 noundef 1272, ptr noundef nonnull @__func__.regexp_like) #9
  unreachable

28:                                               ; preds = %19
  %29 = load i8, ptr %6, align 1
  %30 = zext i8 %29 to i32
  %31 = and i32 %30, 1
  %.not = icmp eq i32 %31, 0
  %32 = getelementptr inbounds nuw i8, ptr %6, i64 1
  %33 = icmp eq i8 %29, 1
  br i1 %33, label %34, label %42

34:                                               ; preds = %28
  %35 = load i8, ptr %32, align 1
  %36 = icmp eq i8 %35, 1
  %37 = and i8 %35, -2
  %38 = icmp eq i8 %37, 2
  %or.cond = or i1 %36, %38
  %39 = icmp eq i8 %35, 18
  %40 = select i1 %39, i32 16, i32 0
  %41 = select i1 %or.cond, i32 8, i32 %40
  br label %50

42:                                               ; preds = %28
  br i1 %.not, label %46, label %43

43:                                               ; preds = %42
  %44 = lshr i32 %30, 1
  %45 = add nsw i32 %44, -1
  br label %50

46:                                               ; preds = %42
  %47 = load i32, ptr %6, align 4
  %48 = lshr i32 %47, 2
  %49 = add nsw i32 %48, -4
  br label %50

50:                                               ; preds = %43, %46, %34
  %51 = phi i32 [ %41, %34 ], [ %45, %43 ], [ %49, %46 ]
  %52 = getelementptr inbounds nuw i8, ptr %6, i64 4
  %53 = select i1 %.not, ptr %52, ptr %32
  %54 = load i32, ptr %2, align 4
  %55 = getelementptr inbounds nuw i8, ptr %0, i64 24
  %56 = load i32, ptr %55, align 8
  %57 = or i32 %54, 16
  %58 = tail call ptr @RE_compile_and_cache(ptr noundef %10, i32 noundef %57, i32 noundef %56)
  %59 = add nsw i32 %51, 1
  %60 = sext i32 %59 to i64
  %61 = shl nsw i64 %60, 2
  %62 = tail call ptr @palloc(i64 noundef %61) #9
  %63 = tail call i32 @pg_mb2wchar_with_len(ptr noundef nonnull %53, ptr noundef %62, i32 noundef %51) #9
  %64 = tail call fastcc zeroext i1 @RE_wchar_execute(ptr noundef %62, i32 noundef %63, i32 noundef 0, i32 noundef 0, ptr noundef null)
  tail call void @pfree(ptr noundef %62) #9
  %65 = zext i1 %64 to i64
  call void @llvm.lifetime.end.p0(i64 8, ptr nonnull %2) #9
  ret i64 %65
}